target datalayout = "e-m:e-p270:32:32-p271:32:32-p272:64:64-i64:64-i128:128-f80:128-n8:16:32:64-S128"
target triple = "x86_64-pc-linux-gnu"

%struct.GCRef = type { i64 }
%struct.jit_State = type { %struct.GCtrace, ptr, ptr, ptr, ptr, ptr, ptr, i32, i32, i32, i8, i8, %struct.IRType1, i8, %struct.FoldState, ptr, i32, i32, i32, i32, i32, i32, i32, [1 x i32], [5 x %union.TValue], [3 x %union.TValue], ptr, i32, i32, i32, i32, ptr, ptr, i32, i32, i8, ptr, i32, i32, i16, [101 x i16], [258 x i32], [15 x i32], [16 x ptr], [64 x %struct.HotPenalty], i32, [16 x %struct.BPropEntry], i32, %struct.ScEvEntry, ptr, i32, i32, i32, ptr, i32, i32, ptr, ptr, ptr, i64, i64, %union.TValue, ptr, i32, i32 }
%struct.GCtrace = type { %struct.GCRef, i8, i8, i16, i32, i32, %struct.GCRef, ptr, i32, i32, ptr, ptr, %struct.GCRef, %struct.MRef, i32, i32, ptr, i32, i16, i16, i16, i16, i16, i16, i16, i8, i8, i8, i8 }
%struct.MRef = type { i64 }
%struct.IRType1 = type { i8 }
%struct.FoldState = type { %union.IRIns, [2 x %union.IRIns], [2 x %union.IRIns] }
%union.IRIns = type { %struct.GCRef }
%struct.HotPenalty = type { %struct.MRef, i16, i16 }
%struct.BPropEntry = type { i16, i16, i32 }
%struct.ScEvEntry = type { %struct.MRef, i16, i16, i16, i16, %struct.IRType1, i8 }
%union.TValue = type { i64 }

; Function Attrs: nounwind uwtable
define internal void @recff_bit_tobit(ptr noundef %0, ptr noundef %1) #0 {
  %3 = alloca ptr, align 8
  %4 = alloca ptr, align 8
  %5 = alloca i32, align 4
  %6 = alloca i32, align 4
  store ptr %0, ptr %3, align 8, !tbaa !4
  store ptr %1, ptr %4, align 8, !tbaa !46
  call void @llvm.lifetime.start.p0(i64 4, ptr %5) #9
  %7 = load ptr, ptr %3, align 8, !tbaa !4
  %8 = getelementptr inbounds nuw %struct.jit_State, ptr %7, i32 0, i32 6
  %9 = load ptr, ptr %8, align 8, !tbaa !41
  %10 = getelementptr inbounds i32, ptr %9, i64 0
  %11 = load i32, ptr %10, align 4, !tbaa !9
  store i32 %11, ptr %5, align 4, !tbaa !9
  %12 = load i32, ptr %5, align 4, !tbaa !9
  %13 = and i32 %12, 520093696
  %14 = icmp eq i32 %13, 167772160
  br i1 %14, label %15, label %18

15:                                               ; preds = %2
  %16 = load ptr, ptr %3, align 8, !tbaa !4
  %17 = load ptr, ptr %4, align 8, !tbaa !46
  call void @recff_bit64_tobit(ptr noundef %16, ptr noundef %17)
  store i32 1, ptr %6, align 4
  br label %26

18:                                               ; preds = %2
  %19 = load ptr, ptr %3, align 8, !tbaa !4
  %20 = load i32, ptr %5, align 4, !tbaa !9
  %21 = call i32 @lj_opt_narrow_tobit(ptr noundef %19, i32 noundef %20)
  %22 = load ptr, ptr %3, align 8, !tbaa !4
  %23 = getelementptr inbounds nuw %struct.jit_State, ptr %22, i32 0, i32 6
  %24 = load ptr, ptr %23, align 8, !tbaa !41
  %25 = getelementptr inbounds i32, ptr %24, i64 0
  store i32 %21, ptr %25, align 4, !tbaa !9
  store i32 0, ptr %6, align 4
  br label %26

26:                                               ; preds = %18, %15
  call void @llvm.lifetime.end.p0(i64 4, ptr %5) #9
  %27 = load i32, ptr %6, align 4
  switch i32 %27, label %29 [
    i32 0, label %28
    i32 1, label %28
  ]

28:                                               ; preds = %26, %26
  ret void

29:                                               ; preds = %26
  unreachable
}