; Function Attrs: nounwind uwtable
define internal void @recff_bit_tobit(ptr noundef %0, ptr noundef %1) #0 {
  %3 = getelementptr inbounds nuw i8, ptr %0, i64 160
  %4 = load ptr, ptr %3, align 8, !tbaa !37
  %5 = load i32, ptr %4, align 4, !tbaa !39
  %6 = and i32 %5, 520093696
  %7 = icmp eq i32 %6, 167772160
  br i1 %7, label %8, label %9

8:                                                ; preds = %2
  tail call void @recff_bit64_tobit(ptr noundef nonnull %0, ptr noundef %1) #9
  br label %12

9:                                                ; preds = %2
  %10 = tail call i32 @lj_opt_narrow_tobit(ptr noundef nonnull %0, i32 noundef %5) #9
  %11 = load ptr, ptr %3, align 8, !tbaa !37
  store i32 %10, ptr %11, align 4, !tbaa !39
  br label %12

12:                                               ; preds = %9, %8
  ret void
}